.code64
.global init_security_model, verify_memory_regions

# Security Levels (like OpenBSD's pledge)
.set SEC_BASIC,       0x01    # Basic operations
.set SEC_DEVICE,      0x02    # Device access
.set SEC_NETWORK,     0x04    # Network operations
.set SEC_STORAGE,     0x08    # Storage access
.set SEC_ADMIN,       0x10    # Administrative

# Input validation constants
.set MAX_INPUT_SIZE,   4096    # Maximum input size
.set MIN_INPUT_SIZE,   1       # Minimum input size
.set VALID_CHARS,      0x7F    # Valid ASCII range
.set SANITIZE_MASK,    0xFF    # Sanitization mask

# Memory Protection (like OpenBSD's unveil)
.struct 0
PROT_REGION:     .quad 0    # Memory region
PROT_PERMS:      .quad 0    # Permissions
PROT_FLAGS:      .quad 0    # Security flags
PROT_WITNESS:    .quad 0    # Integrity check
PROT_SIZE:

# Initialize security model with input validation
init_security_model:
    .cfi_startproc
    .cfi_def_cfa rsp, 8
    push    %rbx
    .cfi_offset rbx, -16
    push    %r12
    .cfi_offset r12, -24
    
    # Set up W^X (Write XOR Execute)
    call    setup_wx_protection
    test    %rax, %rax
    jz      security_init_failed
    
    # Initialize ASLR
    call    init_aslr
    test    %rax, %rax
    jz      security_init_failed
    
    # Set up memory permissions
    call    setup_memory_permissions
    test    %rax, %rax
    jz      security_init_failed
    
    # Initialize integrity monitoring
    call    init_integrity_monitor
    test    %rax, %rax
    jz      security_init_failed
    
    # Initialize input validation
    call    init_input_validation
    test    %rax, %rax
    jz      security_init_failed
    
    mov     $1, %rax
    
security_init_exit:
    pop     %r12
    .cfi_restore r12
    pop     %rbx
    .cfi_restore rbx
    ret
    .cfi_endproc

security_init_failed:
    xor     %rax, %rax
    jmp     security_init_exit

# Comprehensive input validation
validate_input:
    .cfi_startproc
    # %rdi = input buffer, %rsi = input size, %rdx = max allowed size
    push    %rbx
    push    %r12
    push    %r13
    
    mov     %rdi, %rbx    # Input buffer
    mov     %rsi, %r12    # Input size
    mov     %rdx, %r13    # Max allowed size
    
    # Check for null pointer
    test    %rbx, %rbx
    jz      input_invalid
    
    # Validate size bounds
    call    validate_input_size
    test    %rax, %rax
    jz      input_invalid
    
    # Check for integer overflow
    mov     %r12, %rax
    add     $1, %rax
    jc      input_invalid
    
    # Validate character range
    mov     %rbx, %rdi
    mov     %r12, %rsi
    call    validate_character_range
    test    %rax, %rax
    jz      input_invalid
    
    # Check for injection patterns
    mov     %rbx, %rdi
    mov     %r12, %rsi
    call    check_injection_patterns
    test    %rax, %rax
    jnz     input_invalid
    
    # Sanitize input
    mov     %rbx, %rdi
    mov     %r12, %rsi
    call    sanitize_input
    test    %rax, %rax
    jz      input_invalid
    
    mov     $1, %rax      # Input is valid
    
input_validation_exit:
    pop     %r13
    pop     %r12
    pop     %rbx
    ret
    .cfi_endproc

input_invalid:
    xor     %rax, %rax
    jmp     input_validation_exit

# Validate input size against security bounds
validate_input_size:
    .cfi_startproc
    # %r12 = input size, %r13 = max allowed size
    
    # Check minimum size
    cmp     $MIN_INPUT_SIZE, %r12
    jb      size_invalid
    
    # Check maximum size
    cmp     $MAX_INPUT_SIZE, %r12
    ja      size_invalid
    
    # Check against allowed size
    cmp     %r13, %r12
    ja      size_invalid
    
    mov     $1, %rax
    ret
    
size_invalid:
    xor     %rax, %rax
    ret
    .cfi_endproc

# Validate character range for security
validate_character_range:
    .cfi_startproc
    # %rdi = input buffer, %rsi = input size
    push    %rbx
    push    %r12
    push    %r13
    
    mov     %rdi, %rbx    # Input buffer
    mov     %rsi, %r12    # Input size
    mov     $0, %r13      # Counter
    
char_validation_loop:
    # Check each character
    movzb   (%rbx,%r13), %al
    
    # Check for null terminator
    test    %al, %al
    jz      char_validation_done
    
    # Check for valid ASCII range
    cmp     $VALID_CHARS, %al
    ja      char_invalid
    
    # Check for control characters (except newline, tab)
    cmp     $0x20, %al
    jb      char_control_check
    
    inc     %r13
    cmp     %r12, %r13
    jb      char_validation_loop
    jmp     char_validation_done
    
char_control_check:
    # Allow specific control characters
    cmp     $0x09, %al    # Tab
    je      char_valid
    cmp     $0x0A, %al    # Newline
    je      char_valid
    cmp     $0x0D, %al    # Carriage return
    je      char_valid
    jmp     char_invalid
    
char_valid:
    inc     %r13
    cmp     %r12, %r13
    jb      char_validation_loop
    
char_validation_done:
    mov     $1, %rax
    jmp     char_validation_exit
    
char_invalid:
    xor     %rax, %rax
    
char_validation_exit:
    pop     %r13
    pop     %r12
    pop     %rbx
    ret
    .cfi_endproc

# Check for injection patterns
check_injection_patterns:
    .cfi_startproc
    # %rdi = input buffer, %rsi = input size
    push    %rbx
    push    %r12
    push    %r13
    
    mov     %rdi, %rbx    # Input buffer
    mov     %rsi, %r12    # Input size
    mov     $0, %r13      # Counter
    
injection_check_loop:
    # Check for SQL injection patterns
    mov     %rbx, %rdi
    add     %r13, %rdi
    call    check_sql_injection
    test    %rax, %rax
    jnz     injection_detected
    
    # Check for command injection patterns
    mov     %rbx, %rdi
    add     %r13, %rdi
    call    check_command_injection
    test    %rax, %rax
    jnz     injection_detected
    
    # Check for XSS patterns
    mov     %rbx, %rdi
    add     %r13, %rdi
    call    check_xss_patterns
    test    %rax, %rax
    jnz     injection_detected
    
    inc     %r13
    cmp     %r12, %r13
    jb      injection_check_loop
    
    xor     %rax, %rax    # No injection detected
    jmp     injection_check_exit
    
injection_detected:
    mov     $1, %rax      # Injection detected
    
injection_check_exit:
    pop     %r13
    pop     %r12
    pop     %rbx
    ret
    .cfi_endproc

# Check for SQL injection patterns
check_sql_injection:
    .cfi_startproc
    # %rdi = buffer pointer
    push    %rbx
    push    %r12
    
    mov     %rdi, %rbx
    
    # Check for common SQL injection patterns
    mov     $sql_patterns(%rip), %r12
    mov     $0, %rcx
    
sql_pattern_loop:
    mov     (%r12,%rcx,8), %rax
    test    %rax, %rax
    jz      sql_check_done
    
    mov     %rbx, %rdi
    mov     %rax, %rsi
    call    strstr
    test    %rax, %rax
    jnz     sql_injection_found
    
    inc     %rcx
    jmp     sql_pattern_loop
    
sql_check_done:
    xor     %rax, %rax    # No SQL injection
    jmp     sql_check_exit
    
sql_injection_found:
    mov     $1, %rax      # SQL injection detected
    
sql_check_exit:
    pop     %r12
    pop     %rbx
    ret
    .cfi_endproc

# Sanitize input for security
sanitize_input:
    .cfi_startproc
    # %rdi = input buffer, %rsi = input size
    push    %rbx
    push    %r12
    push    %r13
    
    mov     %rdi, %rbx    # Input buffer
    mov     %rsi, %r12    # Input size
    mov     $0, %r13      # Counter
    
sanitize_loop:
    # Get current character
    movzb   (%rbx,%r13), %al
    
    # Apply sanitization mask
    and     $SANITIZE_MASK, %al
    
    # Replace dangerous characters
    cmp     $0x3C, %al    # '<'
    je      replace_char
    cmp     $0x3E, %al    # '>'
    je      replace_char
    cmp     $0x22, %al    # '"'
    je      replace_char
    cmp     $0x27, %al    # '''
    je      replace_char
    cmp     $0x26, %al    # '&'
    je      replace_char
    
    jmp     next_char
    
replace_char:
    movb    $0x5F, (%rbx,%r13)  # Replace with underscore
    
next_char:
    inc     %r13
    cmp     %r12, %r13
    jb      sanitize_loop
    
    mov     $1, %rax      # Sanitization complete
    
sanitize_exit:
    pop     %r13
    pop     %r12
    pop     %rbx
    ret
    .cfi_endproc

# Memory randomization (ASLR)
init_aslr:
    .cfi_startproc
    push    %rbx
    push    %r12
    
    # Generate random base using hardware entropy
    call    generate_secure_random_base
    test    %rax, %rax
    jz      aslr_failed
    
    mov     %rax, %rbx
    
    # Align to page boundary
    and     $0xfffffffffffff000, %rbx
    
    # Randomize kernel regions
    mov     %rbx, %rdi
    call    randomize_kernel_regions
    test    %rax, %rax
    jz      aslr_failed
    
    # Randomize device mappings
    mov     %rbx, %rdi
    call    randomize_device_maps
    test    %rax, %rax
    jz      aslr_failed
    
    mov     $1, %rax
    
aslr_exit:
    pop     %r12
    pop     %rbx
    ret
    .cfi_endproc

aslr_failed:
    xor     %rax, %rax
    jmp     aslr_exit

# Generate secure random base for ASLR
generate_secure_random_base:
    .cfi_startproc
    push    %rbx
    push    %r12
    
    # Use hardware entropy sources
    rdrand  %rax
    rdtsc
    shl     $32, %rdx
    or      %rax, %rdx
    mov     %rdx, %rbx
    
    # Mix with additional entropy
    rdrand  %rax
    xor     %rbx, %rax
    
    # Ensure non-zero base
    test    %rax, %rax
    jz      generate_secure_random_base
    
    pop     %r12
    pop     %rbx
    ret
    .cfi_endproc

# Integrity monitoring
init_integrity_monitor:
    .cfi_startproc
    push    %rbx
    push    %r12
    
    # Set up integrity hashes
    lea     integrity_hashes(%rip), %rdi
    call    setup_integrity_checks
    test    %rax, %rax
    jz      integrity_init_failed
    
    # Initialize monitoring
    call    start_integrity_monitor
    test    %rax, %rax
    jz      integrity_init_failed
    
    # Set up periodic verification
    call    setup_periodic_verification
    test    %rax, %rax
    jz      integrity_init_failed
    
    mov     $1, %rax
    
integrity_exit:
    pop     %r12
    pop     %rbx
    ret
    .cfi_endproc

integrity_init_failed:
    xor     %rax, %rax
    jmp     integrity_exit

# Initialize input validation system
init_input_validation:
    .cfi_startproc
    push    %rbx
    
    # Initialize validation patterns
    call    init_validation_patterns
    test    %rax, %rax
    jz      input_validation_init_failed
    
    # Set up sanitization rules
    call    setup_sanitization_rules
    test    %rax, %rax
    jz      input_validation_init_failed
    
    # Initialize injection detection
    call    init_injection_detection
    test    %rax, %rax
    jz      input_validation_init_failed
    
    mov     $1, %rax
    
input_validation_exit:
    pop     %rbx
    ret
    .cfi_endproc

input_validation_init_failed:
    xor     %rax, %rax
    jmp     input_validation_exit

# Data Section
.section .data
.align 8
security_policy:
    .quad SEC_BASIC | SEC_DEVICE    # Default policy

integrity_hashes:
    .skip 4096    # Integrity check data

# SQL injection patterns
.section .rodata
.align 8
sql_patterns:
    .quad sql_pattern_1
    .quad sql_pattern_2
    .quad sql_pattern_3
    .quad sql_pattern_4
    .quad 0    # End marker

sql_pattern_1:
    .ascii "SELECT"
    .byte 0
sql_pattern_2:
    .ascii "INSERT"
    .byte 0
sql_pattern_3:
    .ascii "UPDATE"
    .byte 0
sql_pattern_4:
    .ascii "DELETE"
    .byte 0

# Read-only security parameters
.section .rodata
security_limits:
    .quad 0x1000    # Memory limits
    .quad 0x2000    # Resource limits
    .quad 0x3000    # Access limits 