.code64
.global init_time_auth, generate_time_cert

# Time Constants
.set TIME_SLICE,      64    # CPU cycles per slice
.set TIME_WINDOW,     1024  # Valid time window
.set TIME_SYNC_INT,   2048  # Sync interval

# Security constants for random generation
.set ENTROPY_POOL_SIZE, 256   # 2KB entropy pool
.set MIXING_ROUNDS,     4     # Cryptographic mixing rounds
.set MIN_ENTROPY_BITS,  128   # Minimum entropy bits required

# Time-based Structure
.struct 0
TIME_STAMP:      .quad 0    # CPU timestamp
TIME_COUNTER:    .quad 0    # Cycle counter
TIME_SEED:       .quad 0    # Time-based seed
TIME_DRIFT:      .quad 0    # Clock drift
TIME_SIZE:

# Secure random number generation using hardware entropy
generate_secure_random:
    .cfi_startproc
    .cfi_def_cfa rsp, 8
    push    %rbx
    .cfi_offset rbx, -16
    push    %r12
    .cfi_offset r12, -24
    push    %r13
    .cfi_offset r13, -32
    
    # Allocate entropy pool
    mov     $ENTROPY_POOL_SIZE, %rdi
    call    allocate_secure_memory
    test    %rax, %rax
    jz      random_generation_failed
    
    mov     %rax, %rbx    # Entropy pool
    
    # Collect hardware entropy
    mov     %rbx, %rdi
    call    collect_hardware_entropy
    test    %rax, %rax
    jz      random_generation_failed
    
    # Apply cryptographic mixing
    mov     %rbx, %rdi
    call    apply_cryptographic_mixing
    test    %rax, %rax
    jz      random_generation_failed
    
    # Verify entropy quality
    mov     %rbx, %rdi
    call    verify_entropy_quality
    test    %rax, %rax
    jz      random_generation_failed
    
    # Generate final random value
    mov     %rbx, %rdi
    call    generate_final_random
    mov     %rax, %r12
    
    # Clean up entropy pool
    mov     %rbx, %rdi
    call    secure_wipe_memory
    
    # Free entropy pool
    mov     %rbx, %rdi
    call    free_secure_memory
    
    mov     %r12, %rax
    
random_generation_exit:
    pop     %r13
    .cfi_restore r13
    pop     %r12
    .cfi_restore r12
    pop     %rbx
    .cfi_restore rbx
    ret
    .cfi_endproc

random_generation_failed:
    xor     %rax, %rax
    jmp     random_generation_exit

# Collect hardware entropy from multiple sources
collect_hardware_entropy:
    .cfi_startproc
    # %rdi = entropy pool buffer
    push    %rbx
    push    %r12
    push    %r13
    
    mov     %rdi, %rbx    # Entropy pool
    mov     $0, %r12      # Counter
    mov     $ENTROPY_POOL_SIZE/8, %r13  # Number of 64-bit values
    
entropy_collection_loop:
    # RDRAND instruction for hardware entropy
    rdrand  %rax
    mov     %rax, (%rbx,%r12,8)
    
    # RDTSC for additional entropy
    rdtsc
    shl     $32, %rdx
    or      %rax, %rdx
    mov     %rdx, 8(%rbx,%r12,8)
    
    # CPUID for more entropy
    mov     %r12, %rax
    cpuid
    mov     %eax, 16(%rbx,%r12,8)
    mov     %ebx, 20(%rbx,%r12,8)
    mov     %ecx, 24(%rbx,%r12,8)
    mov     %edx, 28(%rbx,%r12,8)
    
    # Memory access timing for additional entropy
    mov     (%rbx,%r12,8), %rax
    mov     %rax, 32(%rbx,%r12,8)
    
    # Cache miss timing
    clflush (%rbx,%r12,8)
    rdtsc
    shl     $32, %rdx
    or      %rax, %rdx
    mov     %rdx, 40(%rbx,%r12,8)
    
    add     $6, %r12      # 6 64-bit values per iteration
    cmp     %r13, %r12
    jb      entropy_collection_loop
    
    mov     $1, %rax
    
entropy_collection_exit:
    pop     %r13
    pop     %r12
    pop     %rbx
    ret
    .cfi_endproc

# Apply cryptographic mixing to entropy
apply_cryptographic_mixing:
    .cfi_startproc
    # %rdi = entropy pool buffer
    push    %rbx
    push    %r12
    push    %r13
    
    mov     %rdi, %rbx    # Entropy pool
    mov     $MIXING_ROUNDS, %r12
    
mixing_round_loop:
    # SHA-256 mixing round
    mov     %rbx, %rdi
    call    sha256_mix_round
    
    # XOR mixing with rotation
    mov     %rbx, %rdi
    call    xor_rotate_mix
    
    # Bit rotation mixing
    mov     %rbx, %rdi
    call    bit_rotation_mix
    
    dec     %r12
    jnz     mixing_round_loop
    
    mov     $1, %rax
    
mixing_exit:
    pop     %r13
    pop     %r12
    pop     %rbx
    ret
    .cfi_endproc

# Verify entropy quality
verify_entropy_quality:
    .cfi_startproc
    # %rdi = entropy pool buffer
    push    %rbx
    push    %r12
    
    mov     %rdi, %rbx
    
    # Check for zero bytes
    mov     $ENTROPY_POOL_SIZE, %rcx
    mov     %rbx, %rdi
    call    check_zero_bytes
    test    %rax, %rax
    jnz     entropy_quality_failed
    
    # Check for repeated patterns
    mov     %rbx, %rdi
    call    check_repeated_patterns
    test    %rax, %rax
    jnz     entropy_quality_failed
    
    # Calculate entropy bits
    mov     %rbx, %rdi
    call    calculate_entropy_bits
    cmp     $MIN_ENTROPY_BITS, %rax
    jb      entropy_quality_failed
    
    mov     $1, %rax
    
entropy_quality_exit:
    pop     %r12
    pop     %rbx
    ret
    .cfi_endproc

entropy_quality_failed:
    xor     %rax, %rax
    jmp     entropy_quality_exit

# Generate time-based certificate with secure randomness
generate_time_cert:
    .cfi_startproc
    .cfi_def_cfa rsp, 8
    push    %rbx
    .cfi_offset rbx, -16
    push    %r12
    .cfi_offset r12, -24
    push    %r13
    .cfi_offset r13, -32
    
    # Generate secure random seed
    call    generate_secure_random
    test    %rax, %rax
    jz      time_cert_failed
    
    mov     %rax, %rbx    # Secure random seed
    
    # Get precise CPU timestamp with entropy
    call    get_secure_timestamp
    mov     %rax, %r12    # Secure timestamp
    
    # Calculate time slice with secure randomness
    mov     %r12, %rax
    xor     %rbx, %rax    # Mix with entropy
    xor     %rdx, %rdx
    mov     $TIME_SLICE, %rcx
    div     %rcx
    mov     %rax, %r13    # Current slice
    
    # Generate time-based hash with secure mixing
    mov     %r12, %rdi    # Timestamp
    mov     %r13, %rsi    # Slice
    mov     %rbx, %rdx    # Entropy seed
    call    generate_secure_time_hash
    
    # Create certificate with secure signature
    mov     %rax, %rdi    # Hash
    mov     %r12, %rsi    # Timestamp
    mov     %rbx, %rdx    # Entropy
    call    create_secure_certificate
    
    pop     %r13
    .cfi_restore r13
    pop     %r12
    .cfi_restore r12
    pop     %rbx
    .cfi_restore rbx
    ret
    .cfi_endproc

time_cert_failed:
    xor     %rax, %rax
    pop     %r13
    .cfi_restore r13
    pop     %r12
    .cfi_restore r12
    pop     %rbx
    .cfi_restore rbx
    ret

# Get secure timestamp with entropy mixing
get_secure_timestamp:
    .cfi_startproc
    push    %rbx
    
    # Get CPU timestamp
    rdtsc
    shl     $32, %rdx
    or      %rax, %rdx
    mov     %rdx, %rbx
    
    # Mix with additional entropy
    rdrand  %rax
    xor     %rbx, %rax
    
    # Mix with memory access timing
    mov     %rax, %rbx
    mov     %rbx, %rax
    mov     %rax, (%rsp)
    mov     (%rsp), %rax
    xor     %rbx, %rax
    
    pop     %rbx
    ret
    .cfi_endproc

# Verify time-based auth with secure validation
verify_time_auth:
    .cfi_startproc
    .cfi_def_cfa rsp, 8
    push    %rbx
    .cfi_offset rbx, -16
    push    %r12
    .cfi_offset r12, -24
    
    # Get current secure timestamp
    call    get_secure_timestamp
    mov     %rax, %r12
    
    # Check time window with secure comparison
    mov     %rdi, %rbx    # Auth data
    sub     TIME_STAMP(%rbx), %r12
    cmp     $TIME_WINDOW, %r12
    ja      time_auth_failed
    
    # Verify time slice with secure validation
    mov     %rbx, %rdi
    call    verify_secure_time_slice
    test    %rax, %rax
    jz      time_auth_failed
    
    # Verify entropy in certificate
    mov     %rbx, %rdi
    call    verify_certificate_entropy
    test    %rax, %rax
    jz      time_auth_failed
    
    mov     $1, %rax
    
time_auth_exit:
    pop     %r12
    .cfi_restore r12
    pop     %rbx
    .cfi_restore rbx
    ret
    .cfi_endproc

time_auth_failed:
    xor     %rax, %rax
    jmp     time_auth_exit

# Synchronize time counters with secure entropy
sync_time_counters:
    .cfi_startproc
    .cfi_def_cfa rsp, 8
    push    %rbx
    .cfi_offset rbx, -16
    push    %r12
    .cfi_offset r12, -24
    
    # Read CPU counters with entropy
    call    get_secure_timestamp
    mov     %rax, %rbx
    
    # Generate secure drift calculation
    mov     %rbx, %rdi
    call    calculate_secure_drift
    test    %rax, %rax
    jz      sync_failed
    
    # Adjust time windows with secure entropy
    mov     %rbx, %rdi
    call    adjust_secure_time_windows
    test    %rax, %rax
    jz      sync_failed
    
    mov     $1, %rax
    
sync_exit:
    pop     %r12
    .cfi_restore r12
    pop     %rbx
    .cfi_restore rbx
    ret
    .cfi_endproc

sync_failed:
    xor     %rax, %rax
    jmp     sync_exit

# Data Section
.section .data
.align 8
time_auth_data:
    .skip TIME_SIZE * 1024    # Time auth entries

# Entropy pool for secure random generation
.section .bss
.align 4096
secure_entropy_pool:
    .skip ENTROPY_POOL_SIZE * 4  # Multiple entropy pools 